; Function Attrs: nounwind uwtable
define internal void @checkev(i32 %0, i16 signext %1, ptr noundef %2) #0 {
  %4 = getelementptr inbounds nuw i8, ptr %2, i64 128
  %5 = tail call i32 @pthread_mutex_lock(ptr noundef nonnull %4) #19
  %6 = getelementptr inbounds nuw i8, ptr %2, i64 216
  store volatile i8 0, ptr %6, align 8, !tbaa !3
  fence release
  %7 = getelementptr inbounds nuw i8, ptr %2, i64 168
  %8 = tail call i32 @pthread_cond_broadcast(ptr noundef nonnull %7) #19
  %9 = tail call i32 @pthread_mutex_unlock(ptr noundef nonnull %4) #19
  ret void
}